; Function Attrs: nounwind uwtable
define internal void @end(ptr noundef captures(none) %0) #4 {
  %2 = load ptr, ptr %0, align 8
  %.not = icmp eq ptr %2, null
  br i1 %.not, label %25, label %3

3:                                                ; preds = %1
  %4 = tail call i32 @pthread_mutex_lock(ptr noundef nonnull %2) #10
  %5 = getelementptr inbounds nuw i8, ptr %0, i64 8
  %6 = load i32, ptr %5, align 8
  switch i32 %6, label %.lr.ph.i [
    i32 0, label %change_state.exit
    i32 1, label %._crit_edge.i
  ]

.lr.ph.i:                                         ; preds = %3, %.lr.ph.i
  %7 = load ptr, ptr %0, align 8
  %8 = getelementptr inbounds nuw i8, ptr %7, i64 40
  %9 = tail call i32 @pthread_cond_wait(ptr noundef nonnull %8, ptr noundef %7) #10
  %.pr.i = load i32, ptr %5, align 8
  %.not11.i = icmp eq i32 %.pr.i, 1
  br i1 %.not11.i, label %._crit_edge.i, label %.lr.ph.i, !llvm.loop !4

._crit_edge.i:                                    ; preds = %.lr.ph.i, %3
  store i32 0, ptr %5, align 8
  %10 = load ptr, ptr %0, align 8
  %11 = getelementptr inbounds nuw i8, ptr %10, i64 40
  %12 = tail call i32 @pthread_cond_signal(ptr noundef nonnull %11) #10
  br label %change_state.exit

change_state.exit:                                ; preds = %3, %._crit_edge.i
  %13 = load ptr, ptr %0, align 8
  %14 = tail call i32 @pthread_mutex_unlock(ptr noundef %13) #10
  %15 = load ptr, ptr %0, align 8
  %16 = getelementptr inbounds nuw i8, ptr %15, i64 88
  %17 = load i64, ptr %16, align 8
  %18 = tail call i32 @pthread_join(i64 noundef %17, ptr noundef null) #10
  %19 = load ptr, ptr %0, align 8
  %20 = tail call i32 @pthread_mutex_destroy(ptr noundef %19) #10
  %21 = load ptr, ptr %0, align 8
  %22 = getelementptr inbounds nuw i8, ptr %21, i64 40
  %23 = tail call i32 @pthread_cond_destroy(ptr noundef nonnull %22) #10
  %24 = load ptr, ptr %0, align 8
  tail call void @aom_free(ptr noundef %24) #10
  store ptr null, ptr %0, align 8
  br label %25

25:                                               ; preds = %change_state.exit, %1
  ret void
}